target datalayout = "e-m:e-p270:32:32-p271:32:32-p272:64:64-i64:64-i128:128-f80:128-n8:16:32:64-S128"
target triple = "x86_64-pc-linux-gnu"

%struct.MemoryRegion = type { %struct.Object, i8, i8, i8, i8, i8, i8, i8, i8, i8, i8, ptr, ptr, ptr, ptr, ptr, ptr, i32, i128, i64, ptr, i64, i8, i8, i8, i8, ptr, i64, i32, %union.anon, %union.anon.0, %union.anon.1, ptr, i32, ptr, ptr, i8 }
%struct.Object = type { ptr, ptr, ptr, i32, ptr }
%union.anon = type { %struct.QTailQLink }
%struct.QTailQLink = type { ptr, ptr }
%union.anon.0 = type { %struct.QTailQLink }
%union.anon.1 = type { %struct.QTailQLink }
%struct.VFIOPCIDevice = type { %struct.PCIDevice, %struct.VFIODevice, %struct.VFIOINTx, i32, ptr, i64, i32, i64, ptr, i32, ptr, ptr, i32, i32, [6 x %struct.VFIOBAR], ptr, ptr, %struct.PCIHostDeviceAddress, %struct.QemuUUID, %struct.EventNotifier, %struct.EventNotifier, ptr, i32, i32, i32, i32, i32, i32, i32, i32, i32, i32, i32, i8, i8, i8, i8, i8, i8, i8, i8, i8, i8, i8, i8, i8, i8, i32, i8, i8, i8, ptr, %struct.Notifier }
%struct.PCIDevice = type { %struct.DeviceState, i8, i8, ptr, ptr, ptr, ptr, ptr, i32, %struct.PCIReqIDCache, [64 x i8], [7 x %struct.PCIIORegion], %struct.AddressSpace, %struct.MemoryRegion, %struct.MemoryRegion, ptr, ptr, [3 x ptr], i8, i8, i32, i8, i32, ptr, ptr, ptr, ptr, ptr, ptr, %struct.MemoryRegion, %struct.MemoryRegion, %struct.MemoryRegion, ptr, i8, i32, i8, %struct.PCIExpressDevice, ptr, ptr, i32, i8, %struct.MemoryRegion, i32, ptr, ptr, ptr, ptr, i16, %struct.DOECap, ptr, i32, i32 }
%struct.DeviceState = type { %struct.Object, ptr, ptr, i8, i8, i64, i32, i8, ptr, %struct.NamedGPIOListHead, %struct.NamedClockListHead, %struct.BusStateHead, i32, i32, i32, %struct.ResettableState, ptr, %struct.MemReentrancyGuard }
%struct.NamedGPIOListHead = type { ptr }
%struct.NamedClockListHead = type { ptr }
%struct.BusStateHead = type { ptr }
%struct.ResettableState = type { i32, i8, i8 }
%struct.MemReentrancyGuard = type { i8 }
%struct.PCIReqIDCache = type { ptr, i32 }
%struct.PCIIORegion = type { i64, i64, i8, ptr, ptr }
%struct.AddressSpace = type { %struct.rcu_head, ptr, ptr, ptr, i32, i32, ptr, %union.anon.4, %union.anon.5, i64, i64, %struct.QemuMutex, %struct.anon.6 }
%struct.rcu_head = type { ptr, ptr }
%union.anon.4 = type { %struct.QTailQLink }
%union.anon.5 = type { %struct.QTailQLink }
%struct.QemuMutex = type { %union.pthread_mutex_t, i8 }
%union.pthread_mutex_t = type { %struct.__pthread_mutex_s }
%struct.__pthread_mutex_s = type { i32, i32, i32, i32, i32, i16, i16, %struct.__pthread_internal_list }
%struct.__pthread_internal_list = type { ptr, ptr }
%struct.anon.6 = type { ptr }
%struct.PCIExpressDevice = type { i8, i8, i8, i16, %struct.PCIEAERLog, i16, i16, i16, %struct.PCIESriovPF, %struct.PCIESriovVF }
%struct.PCIEAERLog = type { i16, i16, ptr }
%struct.PCIESriovPF = type { i16, [7 x i8], ptr, ptr }
%struct.PCIESriovVF = type { ptr, i16 }
%struct.DOECap = type { ptr, i16, %struct.anon.7, %struct.anon.8, %struct.anon.9, ptr, ptr, i32, i32, i32, ptr, i16, i32 }
%struct.anon.7 = type { i8, i16 }
%struct.anon.8 = type { i8, i8, i8 }
%struct.anon.9 = type { i8, i8, i8, i8 }
%struct.VFIODevice = type { %struct.anon.10, %struct.anon.11, %struct.anon.12, ptr, ptr, ptr, ptr, ptr, i32, i32, i8, i8, i8, i8, i8, i32, i8, ptr, i32, i32, i32, ptr, ptr, i32, i32, i8, i8, i8, ptr, i32, ptr, ptr, %struct.anon.13 }
%struct.anon.10 = type { ptr, ptr }
%struct.anon.11 = type { ptr, ptr }
%struct.anon.12 = type { ptr, ptr }
%struct.anon.13 = type { ptr, ptr }
%struct.VFIOINTx = type { i8, i8, i8, %struct.EventNotifier, %struct.EventNotifier, %struct.PCIINTxRoute, i32, ptr }
%struct.PCIINTxRoute = type { i32, i32 }
%struct.VFIOBAR = type { %struct.VFIORegion, ptr, i64, i8, i8, i8, %struct.anon.14 }
%struct.VFIORegion = type { ptr, i64, ptr, i64, i32, i32, ptr, i8 }
%struct.anon.14 = type { ptr }
%struct.PCIHostDeviceAddress = type { i32, i32, i32, i32 }
%struct.QemuUUID = type { %union.anon.15 }
%union.anon.15 = type { %struct.anon.16 }
%struct.anon.16 = type { i32, i16, i16, i8, i8, [6 x i8] }
%struct.EventNotifier = type { i32, i32, i8 }
%struct.Notifier = type { ptr, %struct.anon.17 }
%struct.anon.17 = type { ptr, ptr }
%struct.VFIOMSIVector = type { %struct.EventNotifier, %struct.EventNotifier, ptr, i32, i8 }
%struct.MSIMessage = type { i64, i32 }
%struct.VFIOMSIXInfo = type { i8, i8, i16, i32, i32, ptr, i8 }
%struct.timeval = type { i64, i64 }

@trace_events_enabled_count = external global i32, align 4
@message_with_timestamp = external global i8, align 1
@qemu_loglevel = external global i32, align 4
@_TRACE_VFIO_MSIX_PBA_ENABLE_DSTATE = external global i16, align 2
@.str.34 = private unnamed_addr constant [41 x i8] c"%d@%zu.%06zu:vfio_msix_pba_enable  (%s)\0A\00", align 1
@.str.35 = private unnamed_addr constant [28 x i8] c"vfio_msix_pba_enable  (%s)\0A\00", align 1
@_TRACE_VFIO_MSI_INTERRUPT_DSTATE = external global i16, align 2
@.str.36 = private unnamed_addr constant [60 x i8] c"%d@%zu.%06zu:vfio_msi_interrupt  (%s) vector %d 0x%lx/0x%x\0A\00", align 1
@.str.37 = private unnamed_addr constant [47 x i8] c"vfio_msi_interrupt  (%s) vector %d 0x%lx/0x%x\0A\00", align 1

; Function Attrs: inlinehint nounwind sspstrong uwtable
define internal zeroext i1 @qemu_loglevel_mask(i32 noundef %0) #3 {
  %2 = alloca i32, align 4
  store i32 %0, ptr %2, align 4
  %3 = load i32, ptr @qemu_loglevel, align 4
  %4 = load i32, ptr %2, align 4
  %5 = and i32 %3, %4
  %6 = icmp ne i32 %5, 0
  ret i1 %6
}

; Function Attrs: inlinehint nounwind sspstrong uwtable
define internal void @_nocheck__trace_vfio_msi_interrupt(ptr noundef %0, i32 noundef %1, i64 noundef %2, i32 noundef %3) #3 {
  %5 = alloca ptr, align 8
  %6 = alloca i32, align 4
  %7 = alloca i64, align 8
  %8 = alloca i32, align 4
  %9 = alloca %struct.timeval, align 8
  store ptr %0, ptr %5, align 8
  store i32 %1, ptr %6, align 4
  store i64 %2, ptr %7, align 8
  store i32 %3, ptr %8, align 4
  %10 = load i32, ptr @trace_events_enabled_count, align 4
  %11 = icmp ne i32 %10, 0
  %12 = xor i1 %11, true
  %13 = xor i1 %12, true
  %14 = zext i1 %13 to i32
  %15 = sext i32 %14 to i64
  %16 = call i64 @llvm.expect.i64(i64 %15, i64 0)
  %17 = icmp ne i64 %16, 0
  br i1 %17, label %18, label %44

18:                                               ; preds = %4
  %19 = load i16, ptr @_TRACE_VFIO_MSI_INTERRUPT_DSTATE, align 2
  %20 = zext i16 %19 to i32
  %21 = icmp ne i32 %20, 0
  br i1 %21, label %22, label %44

22:                                               ; preds = %18
  %23 = call zeroext i1 @qemu_loglevel_mask(i32 noundef 32768)
  br i1 %23, label %24, label %44

24:                                               ; preds = %22
  %25 = load i8, ptr @message_with_timestamp, align 1, !range !9, !noundef !10
  %26 = trunc i8 %25 to i1
  br i1 %26, label %27, label %38

27:                                               ; preds = %24
  call void @llvm.lifetime.start.p0(i64 16, ptr %9) #19
  call void @llvm.memset.p0.i64(ptr align 8 %9, i8 0, i64 16, i1 false), !annotation !4
  %28 = call i32 @gettimeofday(ptr noundef %9, ptr noundef null) #19
  %29 = call i32 @qemu_get_thread_id()
  %30 = getelementptr inbounds nuw %struct.timeval, ptr %9, i32 0, i32 0
  %31 = load i64, ptr %30, align 8
  %32 = getelementptr inbounds nuw %struct.timeval, ptr %9, i32 0, i32 1
  %33 = load i64, ptr %32, align 8
  %34 = load ptr, ptr %5, align 8
  %35 = load i32, ptr %6, align 4
  %36 = load i64, ptr %7, align 8
  %37 = load i32, ptr %8, align 4
  call void (ptr, ...) @qemu_log(ptr noundef @.str.36, i32 noundef %29, i64 noundef %31, i64 noundef %33, ptr noundef %34, i32 noundef %35, i64 noundef %36, i32 noundef %37)
  call void @llvm.lifetime.end.p0(i64 16, ptr %9) #19
  br label %43

38:                                               ; preds = %24
  %39 = load ptr, ptr %5, align 8
  %40 = load i32, ptr %6, align 4
  %41 = load i64, ptr %7, align 8
  %42 = load i32, ptr %8, align 4
  call void (ptr, ...) @qemu_log(ptr noundef @.str.37, ptr noundef %39, i32 noundef %40, i64 noundef %41, i32 noundef %42)
  br label %43

43:                                               ; preds = %38, %27
  br label %44

44:                                               ; preds = %43, %22, %18, %4
  ret void
}

; Function Attrs: inlinehint nounwind sspstrong uwtable
define internal void @_nocheck__trace_vfio_msix_pba_enable(ptr noundef %0) #3 {
  %2 = alloca ptr, align 8
  %3 = alloca %struct.timeval, align 8
  store ptr %0, ptr %2, align 8
  %4 = load i32, ptr @trace_events_enabled_count, align 4
  %5 = icmp ne i32 %4, 0
  %6 = xor i1 %5, true
  %7 = xor i1 %6, true
  %8 = zext i1 %7 to i32
  %9 = sext i32 %8 to i64
  %10 = call i64 @llvm.expect.i64(i64 %9, i64 0)
  %11 = icmp ne i64 %10, 0
  br i1 %11, label %12, label %32

12:                                               ; preds = %1
  %13 = load i16, ptr @_TRACE_VFIO_MSIX_PBA_ENABLE_DSTATE, align 2
  %14 = zext i16 %13 to i32
  %15 = icmp ne i32 %14, 0
  br i1 %15, label %16, label %32

16:                                               ; preds = %12
  %17 = call zeroext i1 @qemu_loglevel_mask(i32 noundef 32768)
  br i1 %17, label %18, label %32

18:                                               ; preds = %16
  %19 = load i8, ptr @message_with_timestamp, align 1, !range !9, !noundef !10
  %20 = trunc i8 %19 to i1
  br i1 %20, label %21, label %29

21:                                               ; preds = %18
  call void @llvm.lifetime.start.p0(i64 16, ptr %3) #19
  call void @llvm.memset.p0.i64(ptr align 8 %3, i8 0, i64 16, i1 false), !annotation !4
  %22 = call i32 @gettimeofday(ptr noundef %3, ptr noundef null) #19
  %23 = call i32 @qemu_get_thread_id()
  %24 = getelementptr inbounds nuw %struct.timeval, ptr %3, i32 0, i32 0
  %25 = load i64, ptr %24, align 8
  %26 = getelementptr inbounds nuw %struct.timeval, ptr %3, i32 0, i32 1
  %27 = load i64, ptr %26, align 8
  %28 = load ptr, ptr %2, align 8
  call void (ptr, ...) @qemu_log(ptr noundef @.str.34, i32 noundef %23, i64 noundef %25, i64 noundef %27, ptr noundef %28)
  call void @llvm.lifetime.end.p0(i64 16, ptr %3) #19
  br label %31

29:                                               ; preds = %18
  %30 = load ptr, ptr %2, align 8
  call void (ptr, ...) @qemu_log(ptr noundef @.str.35, ptr noundef %30)
  br label %31

31:                                               ; preds = %29, %21
  br label %32

32:                                               ; preds = %31, %16, %12, %1
  ret void
}

; Function Attrs: inlinehint nounwind sspstrong uwtable
define internal void @trace_vfio_msi_interrupt(ptr noundef %0, i32 noundef %1, i64 noundef %2, i32 noundef %3) #3 {
  %5 = alloca ptr, align 8
  %6 = alloca i32, align 4
  %7 = alloca i64, align 8
  %8 = alloca i32, align 4
  store ptr %0, ptr %5, align 8
  store i32 %1, ptr %6, align 4
  store i64 %2, ptr %7, align 8
  store i32 %3, ptr %8, align 4
  %9 = load ptr, ptr %5, align 8
  %10 = load i32, ptr %6, align 4
  %11 = load i64, ptr %7, align 8
  %12 = load i32, ptr %8, align 4
  call void @_nocheck__trace_vfio_msi_interrupt(ptr noundef %9, i32 noundef %10, i64 noundef %11, i32 noundef %12)
  ret void
}

; Function Attrs: inlinehint nounwind sspstrong uwtable
define internal void @trace_vfio_msix_pba_enable(ptr noundef %0) #3 {
  %2 = alloca ptr, align 8
  store ptr %0, ptr %2, align 8
  %3 = load ptr, ptr %2, align 8
  call void @_nocheck__trace_vfio_msix_pba_enable(ptr noundef %3)
  ret void
}

; Function Attrs: inlinehint nounwind sspstrong uwtable
define internal void @set_bit(i64 noundef %0, ptr noundef %1) #3 {
  %3 = alloca i64, align 8
  %4 = alloca ptr, align 8
  %5 = alloca i64, align 8
  %6 = alloca ptr, align 8
  store i64 %0, ptr %3, align 8
  store ptr %1, ptr %4, align 8
  call void @llvm.lifetime.start.p0(i64 8, ptr %5) #19
  %7 = load i64, ptr %3, align 8
  %8 = urem i64 %7, 64
  %9 = shl i64 1, %8
  store i64 %9, ptr %5, align 8
  call void @llvm.lifetime.start.p0(i64 8, ptr %6) #19
  %10 = load ptr, ptr %4, align 8
  %11 = load i64, ptr %3, align 8
  %12 = udiv i64 %11, 64
  %13 = getelementptr inbounds nuw i64, ptr %10, i64 %12
  store ptr %13, ptr %6, align 8
  %14 = load i64, ptr %5, align 8
  %15 = load ptr, ptr %6, align 8
  %16 = load i64, ptr %15, align 8
  %17 = or i64 %16, %14
  store i64 %17, ptr %15, align 8
  call void @llvm.lifetime.end.p0(i64 8, ptr %6) #19
  call void @llvm.lifetime.end.p0(i64 8, ptr %5) #19
  ret void
}

; Function Attrs: nounwind sspstrong uwtable
define internal void @vfio_msi_interrupt(ptr noundef %0) #0 {
  %2 = alloca ptr, align 8
  %3 = alloca ptr, align 8
  %4 = alloca ptr, align 8
  %5 = alloca ptr, align 8
  %6 = alloca ptr, align 8
  %7 = alloca %struct.MSIMessage, align 8
  %8 = alloca i32, align 4
  %9 = alloca i32, align 4
  %10 = alloca %struct.MSIMessage, align 8
  store ptr %0, ptr %2, align 8
  call void @llvm.lifetime.start.p0(i64 8, ptr %3) #19
  %11 = load ptr, ptr %2, align 8
  store ptr %11, ptr %3, align 8
  call void @llvm.lifetime.start.p0(i64 8, ptr %4) #19
  %12 = load ptr, ptr %3, align 8
  %13 = getelementptr inbounds nuw %struct.VFIOMSIVector, ptr %12, i32 0, i32 2
  %14 = load ptr, ptr %13, align 8
  store ptr %14, ptr %4, align 8
  call void @llvm.lifetime.start.p0(i64 8, ptr %5) #19
  store ptr null, ptr %5, align 8, !annotation !4
  call void @llvm.lifetime.start.p0(i64 8, ptr %6) #19
  store ptr null, ptr %6, align 8, !annotation !4
  call void @llvm.lifetime.start.p0(i64 16, ptr %7) #19
  call void @llvm.memset.p0.i64(ptr align 8 %7, i8 0, i64 16, i1 false), !annotation !4
  call void @llvm.lifetime.start.p0(i64 4, ptr %8) #19
  %15 = load ptr, ptr %3, align 8
  %16 = load ptr, ptr %4, align 8
  %17 = getelementptr inbounds nuw %struct.VFIOPCIDevice, ptr %16, i32 0, i32 10
  %18 = load ptr, ptr %17, align 16
  %19 = ptrtoint ptr %15 to i64
  %20 = ptrtoint ptr %18 to i64
  %21 = sub i64 %19, %20
  %22 = sdiv exact i64 %21, 40
  %23 = trunc i64 %22 to i32
  store i32 %23, ptr %8, align 4
  %24 = load ptr, ptr %3, align 8
  %25 = getelementptr inbounds nuw %struct.VFIOMSIVector, ptr %24, i32 0, i32 0
  %26 = call i32 @event_notifier_test_and_clear(ptr noundef %25)
  %27 = icmp ne i32 %26, 0
  br i1 %27, label %29, label %28

28:                                               ; preds = %1
  store i32 1, ptr %9, align 4
  br label %86

29:                                               ; preds = %1
  %30 = load ptr, ptr %4, align 8
  %31 = getelementptr inbounds nuw %struct.VFIOPCIDevice, ptr %30, i32 0, i32 13
  %32 = load i32, ptr %31, align 4
  %33 = icmp eq i32 %32, 3
  br i1 %33, label %34, label %55

34:                                               ; preds = %29
  store ptr @msix_get_message, ptr %5, align 8
  store ptr @msix_notify, ptr %6, align 8
  %35 = load ptr, ptr %4, align 8
  %36 = getelementptr inbounds nuw %struct.VFIOPCIDevice, ptr %35, i32 0, i32 0
  %37 = load i32, ptr %8, align 4
  %38 = call zeroext i1 @msix_is_masked(ptr noundef %36, i32 noundef %37)
  br i1 %38, label %39, label %54

39:                                               ; preds = %34
  %40 = load i32, ptr %8, align 4
  %41 = sext i32 %40 to i64
  %42 = load ptr, ptr %4, align 8
  %43 = getelementptr inbounds nuw %struct.VFIOPCIDevice, ptr %42, i32 0, i32 11
  %44 = load ptr, ptr %43, align 8
  %45 = getelementptr inbounds nuw %struct.VFIOMSIXInfo, ptr %44, i32 0, i32 5
  %46 = load ptr, ptr %45, align 8
  call void @set_bit(i64 noundef %41, ptr noundef %46)
  %47 = load ptr, ptr %4, align 8
  %48 = getelementptr inbounds nuw %struct.VFIOPCIDevice, ptr %47, i32 0, i32 0
  %49 = getelementptr inbounds nuw %struct.PCIDevice, ptr %48, i32 0, i32 31
  call void @memory_region_set_enabled(ptr noundef %49, i1 noundef zeroext true)
  %50 = load ptr, ptr %4, align 8
  %51 = getelementptr inbounds nuw %struct.VFIOPCIDevice, ptr %50, i32 0, i32 1
  %52 = getelementptr inbounds nuw %struct.VFIODevice, ptr %51, i32 0, i32 6
  %53 = load ptr, ptr %52, align 8
  call void @trace_vfio_msix_pba_enable(ptr noundef %53)
  br label %54

54:                                               ; preds = %39, %34
  br label %63

55:                                               ; preds = %29
  %56 = load ptr, ptr %4, align 8
  %57 = getelementptr inbounds nuw %struct.VFIOPCIDevice, ptr %56, i32 0, i32 13
  %58 = load i32, ptr %57, align 4
  %59 = icmp eq i32 %58, 2
  br i1 %59, label %60, label %61

60:                                               ; preds = %55
  store ptr @msi_get_message, ptr %5, align 8
  store ptr @msi_notify, ptr %6, align 8
  br label %62

61:                                               ; preds = %55
  call void @abort() #25
  unreachable

62:                                               ; preds = %60
  br label %63

63:                                               ; preds = %62, %54
  call void @llvm.lifetime.start.p0(i64 16, ptr %10) #19
  %64 = load ptr, ptr %5, align 8
  %65 = load ptr, ptr %4, align 8
  %66 = getelementptr inbounds nuw %struct.VFIOPCIDevice, ptr %65, i32 0, i32 0
  %67 = load i32, ptr %8, align 4
  %68 = call { i64, i32 } %64(ptr noundef %66, i32 noundef %67)
  %69 = getelementptr inbounds nuw { i64, i32 }, ptr %10, i32 0, i32 0
  %70 = extractvalue { i64, i32 } %68, 0
  store i64 %70, ptr %69, align 8
  %71 = getelementptr inbounds nuw { i64, i32 }, ptr %10, i32 0, i32 1
  %72 = extractvalue { i64, i32 } %68, 1
  store i32 %72, ptr %71, align 8
  call void @llvm.memcpy.p0.p0.i64(ptr align 8 %7, ptr align 8 %10, i64 16, i1 false)
  call void @llvm.lifetime.end.p0(i64 16, ptr %10) #19
  %73 = load ptr, ptr %4, align 8
  %74 = getelementptr inbounds nuw %struct.VFIOPCIDevice, ptr %73, i32 0, i32 1
  %75 = getelementptr inbounds nuw %struct.VFIODevice, ptr %74, i32 0, i32 6
  %76 = load ptr, ptr %75, align 8
  %77 = load i32, ptr %8, align 4
  %78 = getelementptr inbounds nuw %struct.MSIMessage, ptr %7, i32 0, i32 0
  %79 = load i64, ptr %78, align 8
  %80 = getelementptr inbounds nuw %struct.MSIMessage, ptr %7, i32 0, i32 1
  %81 = load i32, ptr %80, align 8
  call void @trace_vfio_msi_interrupt(ptr noundef %76, i32 noundef %77, i64 noundef %79, i32 noundef %81)
  %82 = load ptr, ptr %6, align 8
  %83 = load ptr, ptr %4, align 8
  %84 = getelementptr inbounds nuw %struct.VFIOPCIDevice, ptr %83, i32 0, i32 0
  %85 = load i32, ptr %8, align 4
  call void %82(ptr noundef %84, i32 noundef %85)
  store i32 0, ptr %9, align 4
  br label %86

86:                                               ; preds = %63, %28
  call void @llvm.lifetime.end.p0(i64 4, ptr %8) #19
  call void @llvm.lifetime.end.p0(i64 16, ptr %7) #19
  call void @llvm.lifetime.end.p0(i64 8, ptr %6) #19
  call void @llvm.lifetime.end.p0(i64 8, ptr %5) #19
  call void @llvm.lifetime.end.p0(i64 8, ptr %4) #19
  call void @llvm.lifetime.end.p0(i64 8, ptr %3) #19
  %87 = load i32, ptr %9, align 4
  switch i32 %87, label %89 [
    i32 0, label %88
    i32 1, label %88
  ]

88:                                               ; preds = %86, %86
  ret void

89:                                               ; preds = %86
  unreachable
}