; Function Attrs: nounwind sspstrong uwtable
define internal void @vfio_msi_interrupt(ptr noundef %0) #0 {
  %2 = alloca %struct.timeval, align 8
  %3 = alloca %struct.timeval, align 8
  %4 = getelementptr inbounds nuw i8, ptr %0, i64 24
  %5 = load ptr, ptr %4, align 8
  %6 = getelementptr inbounds nuw i8, ptr %5, i64 3072
  %7 = load ptr, ptr %6, align 16
  %8 = ptrtoint ptr %0 to i64
  %9 = ptrtoint ptr %7 to i64
  %10 = sub i64 %8, %9
  %11 = sdiv exact i64 %10, 40
  %12 = trunc i64 %11 to i32
  %13 = tail call i32 @event_notifier_test_and_clear(ptr noundef %0) #26
  %.not = icmp eq i32 %13, 0
  br i1 %.not, label %72, label %14

14:                                               ; preds = %1
  %15 = getelementptr inbounds nuw i8, ptr %5, i64 3092
  %16 = load i32, ptr %15, align 4
  switch i32 %16, label %50 [
    i32 3, label %17
    i32 2, label %trace_vfio_msix_pba_enable.exit
  ]

17:                                               ; preds = %14
  %18 = tail call zeroext i1 @msix_is_masked(ptr noundef nonnull %5, i32 noundef %12) #26
  br i1 %18, label %19, label %trace_vfio_msix_pba_enable.exit

19:                                               ; preds = %17
  %sext = shl i64 %11, 32
  %20 = ashr exact i64 %sext, 32
  %21 = getelementptr inbounds nuw i8, ptr %5, i64 3080
  %22 = load ptr, ptr %21, align 8
  %23 = getelementptr inbounds nuw i8, ptr %22, i64 16
  %24 = load ptr, ptr %23, align 8
  %25 = and i64 %11, 63
  %26 = shl nuw i64 1, %25
  %27 = lshr i64 %20, 6
  %28 = getelementptr inbounds nuw i64, ptr %24, i64 %27
  %29 = load i64, ptr %28, align 8
  %30 = or i64 %29, %26
  store i64 %30, ptr %28, align 8
  %31 = getelementptr inbounds nuw i8, ptr %5, i64 1936
  tail call void @memory_region_set_enabled(ptr noundef nonnull %31, i1 noundef zeroext true) #26
  %32 = getelementptr inbounds nuw i8, ptr %5, i64 2824
  %33 = load ptr, ptr %32, align 8
  %34 = load i32, ptr @trace_events_enabled_count, align 4
  %.not.i.i = icmp eq i32 %34, 0
  br i1 %.not.i.i, label %trace_vfio_msix_pba_enable.exit, label %35, !prof !5

35:                                               ; preds = %19
  %36 = load i16, ptr @_TRACE_VFIO_MSIX_PBA_ENABLE_DSTATE, align 2
  %.not2.i.i = icmp eq i16 %36, 0
  br i1 %.not2.i.i, label %trace_vfio_msix_pba_enable.exit, label %37

37:                                               ; preds = %35
  %38 = load i32, ptr @qemu_loglevel, align 4
  %39 = and i32 %38, 32768
  %.not3.i.i = icmp eq i32 %39, 0
  br i1 %.not3.i.i, label %trace_vfio_msix_pba_enable.exit, label %40

40:                                               ; preds = %37
  %41 = load i8, ptr @message_with_timestamp, align 1, !range !6, !noundef !7
  %42 = trunc nuw i8 %41 to i1
  br i1 %42, label %43, label %49

43:                                               ; preds = %40
  call void @llvm.lifetime.start.p0(i64 16, ptr nonnull %3) #26
  call void @llvm.memset.p0.i64(ptr noundef nonnull align 8 dereferenceable(16) %3, i8 0, i64 16, i1 false), !annotation !4
  %44 = call i32 @gettimeofday(ptr noundef nonnull %3, ptr noundef null) #26
  %45 = tail call i32 @qemu_get_thread_id() #26
  %46 = load i64, ptr %3, align 8
  %47 = getelementptr inbounds nuw i8, ptr %3, i64 8
  %48 = load i64, ptr %47, align 8
  tail call void (ptr, ...) @qemu_log(ptr noundef nonnull @.str.34, i32 noundef %45, i64 noundef %46, i64 noundef %48, ptr noundef %33) #26
  call void @llvm.lifetime.end.p0(i64 16, ptr nonnull %3) #26
  br label %trace_vfio_msix_pba_enable.exit

49:                                               ; preds = %40
  tail call void (ptr, ...) @qemu_log(ptr noundef nonnull @.str.35, ptr noundef %33) #26
  br label %trace_vfio_msix_pba_enable.exit

50:                                               ; preds = %14
  tail call void @abort() #27
  unreachable

trace_vfio_msix_pba_enable.exit:                  ; preds = %49, %43, %37, %35, %19, %14, %17
  %.022 = phi ptr [ @msix_notify, %17 ], [ @msi_notify, %14 ], [ @msix_notify, %19 ], [ @msix_notify, %35 ], [ @msix_notify, %37 ], [ @msix_notify, %43 ], [ @msix_notify, %49 ]
  %.0 = phi ptr [ @msix_get_message, %17 ], [ @msi_get_message, %14 ], [ @msix_get_message, %19 ], [ @msix_get_message, %35 ], [ @msix_get_message, %37 ], [ @msix_get_message, %43 ], [ @msix_get_message, %49 ]
  %51 = tail call { i64, i32 } %.0(ptr noundef nonnull %5, i32 noundef %12) #26, !callees !20
  %52 = extractvalue { i64, i32 } %51, 0
  %53 = extractvalue { i64, i32 } %51, 1
  %54 = getelementptr inbounds nuw i8, ptr %5, i64 2824
  %55 = load ptr, ptr %54, align 8
  %56 = load i32, ptr @trace_events_enabled_count, align 4
  %.not.i.i24 = icmp eq i32 %56, 0
  br i1 %.not.i.i24, label %trace_vfio_msi_interrupt.exit, label %57, !prof !5

57:                                               ; preds = %trace_vfio_msix_pba_enable.exit
  %58 = load i16, ptr @_TRACE_VFIO_MSI_INTERRUPT_DSTATE, align 2
  %.not7.i.i = icmp eq i16 %58, 0
  br i1 %.not7.i.i, label %trace_vfio_msi_interrupt.exit, label %59

59:                                               ; preds = %57
  %60 = load i32, ptr @qemu_loglevel, align 4
  %61 = and i32 %60, 32768
  %.not8.i.i = icmp eq i32 %61, 0
  br i1 %.not8.i.i, label %trace_vfio_msi_interrupt.exit, label %62

62:                                               ; preds = %59
  %63 = load i8, ptr @message_with_timestamp, align 1, !range !6, !noundef !7
  %64 = trunc nuw i8 %63 to i1
  br i1 %64, label %65, label %71

65:                                               ; preds = %62
  call void @llvm.lifetime.start.p0(i64 16, ptr nonnull %2) #26
  call void @llvm.memset.p0.i64(ptr noundef nonnull align 8 dereferenceable(16) %2, i8 0, i64 16, i1 false), !annotation !4
  %66 = call i32 @gettimeofday(ptr noundef nonnull %2, ptr noundef null) #26
  %67 = tail call i32 @qemu_get_thread_id() #26
  %68 = load i64, ptr %2, align 8
  %69 = getelementptr inbounds nuw i8, ptr %2, i64 8
  %70 = load i64, ptr %69, align 8
  tail call void (ptr, ...) @qemu_log(ptr noundef nonnull @.str.36, i32 noundef %67, i64 noundef %68, i64 noundef %70, ptr noundef %55, i32 noundef %12, i64 noundef %52, i32 noundef %53) #26
  call void @llvm.lifetime.end.p0(i64 16, ptr nonnull %2) #26
  br label %trace_vfio_msi_interrupt.exit

71:                                               ; preds = %62
  tail call void (ptr, ...) @qemu_log(ptr noundef nonnull @.str.37, ptr noundef %55, i32 noundef %12, i64 noundef %52, i32 noundef %53) #26
  br label %trace_vfio_msi_interrupt.exit

trace_vfio_msi_interrupt.exit:                    ; preds = %trace_vfio_msix_pba_enable.exit, %57, %59, %65, %71
  tail call void %.022(ptr noundef nonnull %5, i32 noundef %12) #26, !callees !21
  br label %72

72:                                               ; preds = %1, %trace_vfio_msi_interrupt.exit
  ret void
}